target datalayout = "e-m:e-p270:32:32-p271:32:32-p272:64:64-i64:64-i128:128-f80:128-n8:16:32:64-S128"
target triple = "x86_64-pc-linux-gnu"

%struct.H264SliceContext = type { ptr, %struct.GetBitContext, ptr, i32, i32, i32, i32, i32, [2 x i32], i32, i32, i32, i32, i32, %struct.H264PredWeightTable, i32, i32, i32, i32, [40 x i8], ptr, i32, i32, i32, [2 x i32], i32, i32, i32, [2 x i32], ptr, i32, i32, i32, i32, i32, i64, i64, i64, i64, i32, i32, i32, i32, i32, i32, i32, i32, i32, i32, i32, i32, i32, i32, i32, i32, i32, i32, i32, i32, [32 x i32], [2 x [32 x i32]], [2 x [48 x i32]], [2 x [2 x [48 x i32]]], [2 x i32], i32, [2 x [48 x %struct.H264Ref]], [2 x [32 x %struct.anon]], [2 x i32], i32, ptr, ptr, ptr, [2 x ptr], i32, i32, [2 x i32], [120 x i8], [8 x i8], [2 x [40 x [2 x i16]]], [2 x [40 x i8]], [2 x [40 x [2 x i8]]], [40 x i8], [4 x i16], [1536 x i16], [3 x [32 x i16]], [512 x i16], [2 x ptr], %struct.CABACContext, [1024 x i8], i32, [67 x %struct.MMCO], i32, i32, i32, i32, i32, i32, [2 x i32], i32, i32 }
%struct.GetBitContext = type { ptr, ptr, i32, i32, i32 }
%struct.H264PredWeightTable = type { i32, i32, i32, i32, [2 x i32], [2 x i32], [48 x [2 x [2 x i32]]], [48 x [2 x [2 x [2 x i32]]]], [48 x [48 x [2 x i32]]] }
%struct.H264Ref = type { [3 x ptr], [3 x i32], i32, i32, i32, ptr }
%struct.anon = type { i8, i32 }
%struct.CABACContext = type { i32, i32, ptr, ptr, ptr }
%struct.MMCO = type { i32, i32, i32 }
%struct.H264Context = type { ptr, ptr, %struct.VideoDSPContext, %struct.H264DSPContext, %struct.H264ChromaContext, %struct.H264QpelContext, %struct.H274FilmGrainDatabase, [36 x %struct.H264Picture], ptr, %struct.H264Picture, %struct.H264Picture, ptr, i32, i32, %struct.H2645Packet, i32, i32, i32, i32, i32, i32, i32, i32, i32, i32, i32, i32, i32, i32, i32, i32, i32, ptr, %struct.H264PredContext, ptr, [96 x i32], ptr, ptr, i32, ptr, i32, i32, i32, ptr, ptr, ptr, [2 x ptr], ptr, [16 x i8], [16 x i8], [64 x i8], [64 x i8], [16 x i8], [64 x i8], [64 x i8], [16 x i8], [64 x i8], [64 x i8], [16 x i8], [64 x i8], [64 x i8], i32, i32, i32, i32, i32, i32, i32, i32, i32, i32, i32, i32, %struct.H264ParamSets, ptr, %struct.H264POCContext, [2 x %struct.H264Ref], [32 x ptr], [32 x ptr], [18 x ptr], [16 x i32], ptr, i32, i32, [67 x %struct.MMCO], i32, i32, i32, i32, i32, i32, i32, i32, i32, i32, i32, i32, i32, i32, i32, [32 x i16], i32, i32, i32, %struct.ERContext, ptr, %struct.H264SEIContext, ptr, ptr, ptr, ptr, ptr, [32 x [2 x [64 x i32]]], i32, i32, i32 }
%struct.VideoDSPContext = type { ptr, ptr }
%struct.H264DSPContext = type { [4 x ptr], [4 x ptr], ptr, ptr, ptr, ptr, ptr, ptr, ptr, ptr, ptr, ptr, ptr, ptr, ptr, ptr, ptr, ptr, ptr, ptr, ptr, ptr, ptr, ptr, ptr, ptr, ptr, ptr }
%struct.H264ChromaContext = type { [4 x ptr], [4 x ptr] }
%struct.H264QpelContext = type { [4 x [16 x ptr]], [4 x [16 x ptr]] }
%struct.H274FilmGrainDatabase = type { [13 x [13 x [64 x [64 x i8]]]], [13 x i16], [64 x [64 x i16]] }
%struct.H264Picture = type { ptr, %struct.ThreadFrame, ptr, ptr, ptr, [2 x ptr], [2 x ptr], ptr, ptr, ptr, [2 x ptr], [2 x i32], i32, i32, i32, i32, i32, [2 x [2 x [32 x i32]]], [2 x [2 x i32]], i32, i32, i32, i32, i32, i32, i32, ptr, i32, i32, i32, ptr, i32 }
%struct.ThreadFrame = type { ptr, [2 x ptr], ptr }
%struct.H2645Packet = type { ptr, %struct.H2645RBSP, i32, i32, i32 }
%struct.H2645RBSP = type { ptr, ptr, i32, i32 }
%struct.H264PredContext = type { [15 x ptr], [12 x ptr], [11 x ptr], [9 x ptr], [2 x ptr], [2 x ptr], [2 x ptr], [3 x ptr], [3 x ptr] }
%struct.H264ParamSets = type { [32 x ptr], [256 x ptr], ptr, ptr, [2 x i32] }
%struct.H264POCContext = type { i32, i32, i32, [2 x i32], i32, i32, i32, i32, i32, i32 }
%struct.ERContext = type { ptr, ptr, i32, ptr, i32, i32, i32, i64, i64, i32, i32, ptr, ptr, [3 x ptr], ptr, ptr, [2 x [4 x [2 x i32]]], %struct.ERPicture, %struct.ERPicture, %struct.ERPicture, [2 x ptr], [2 x ptr], i16, i16, i32, i32, ptr, ptr }
%struct.ERPicture = type { ptr, ptr, ptr, [2 x ptr], [2 x ptr], ptr, i32 }
%struct.H264SEIContext = type { %struct.H2645SEI, %struct.H264SEIPictureTiming, %struct.H264SEIRecoveryPoint, %struct.H264SEIBufferingPeriod, %struct.H264SEIGreenMetaData }
%struct.H2645SEI = type { %struct.H2645SEIA53Caption, %struct.H2645SEIAFD, %struct.HEVCSEIDynamicHDRPlus, %struct.HEVCSEIDynamicHDRVivid, %struct.HEVCSEILCEVC, %struct.H2645SEIUnregistered, %struct.H2645SEIFramePacking, %struct.H2645SEIDisplayOrientation, %struct.H2645SEIAlternativeTransfer, %struct.H2645SEIAmbientViewingEnvironment, %struct.H2645SEIMasteringDisplay, %struct.H2645SEIContentLight, %struct.AVFilmGrainAFGS1Params, ptr }
%struct.H2645SEIA53Caption = type { ptr }
%struct.H2645SEIAFD = type { i32, i8 }
%struct.HEVCSEIDynamicHDRPlus = type { ptr }
%struct.HEVCSEIDynamicHDRVivid = type { ptr }
%struct.HEVCSEILCEVC = type { ptr }
%struct.H2645SEIUnregistered = type { ptr, i32, i32 }
%struct.H2645SEIFramePacking = type { i32, i32, i32, i32, i32, i32, i32, i32 }
%struct.H2645SEIDisplayOrientation = type { i32, i32, i32, i32 }
%struct.H2645SEIAlternativeTransfer = type { i32, i32 }
%struct.H2645SEIAmbientViewingEnvironment = type { i32, i32, i16, i16 }
%struct.H2645SEIMasteringDisplay = type { i32, [3 x [2 x i16]], [2 x i16], i32, i32 }
%struct.H2645SEIContentLight = type { i32, i16, i16 }
%struct.AVFilmGrainAFGS1Params = type { i32, [8 x ptr] }
%struct.H264SEIPictureTiming = type { [40 x i8], i32, i32, i32, i32, i32, i32, [3 x %struct.H264SEITimeCode], i32 }
%struct.H264SEITimeCode = type { i32, i32, i32, i32, i32, i32 }
%struct.H264SEIRecoveryPoint = type { i32 }
%struct.H264SEIBufferingPeriod = type { i32, [32 x i32] }
%struct.H264SEIGreenMetaData = type { i8, i8, i16, i16, i8, i8, i8, i8, i8, i16 }
%struct.SPS = type { i32, i32, i32, i32, i32, i32, i32, i32, i32, i32, i32, i32, i32, i32, i32, i32, i32, i32, i32, i32, i32, i32, i32, i32, i32, %struct.H2645VUI, i32, i32, i32, i32, [256 x i32], i32, i32, i32, i32, i16, [6 x [16 x i8]], [6 x [64 x i8]], i32, i32, i32, i32, i32, i32, [32 x i32], [32 x i32], i32, i32, i32, i32, i32, i32, i32, i32, [4096 x i8], i64 }
%struct.H2645VUI = type { %struct.AVRational, i32, i32, i32, i32, i32, i32, i32, i32, i32, i32, i32, i32, i32, i32, i32 }
%struct.AVRational = type { i32, i32 }

; Function Attrs: nounwind uwtable
define void @ff_h264_hl_decode_mb(ptr noundef %0, ptr noundef %1) #0 {
  %3 = alloca ptr, align 8
  %4 = alloca ptr, align 8
  %5 = alloca i32, align 4
  %6 = alloca i32, align 4
  %7 = alloca i32, align 4
  store ptr %0, ptr %3, align 8, !tbaa !4
  store ptr %1, ptr %4, align 8, !tbaa !9
  call void @llvm.lifetime.start.p0(i64 4, ptr %5) #9
  %8 = load ptr, ptr %4, align 8, !tbaa !9
  %9 = getelementptr inbounds nuw %struct.H264SliceContext, ptr %8, i32 0, i32 41
  %10 = load i32, ptr %9, align 16, !tbaa !11
  store i32 %10, ptr %5, align 4, !tbaa !20
  call void @llvm.lifetime.start.p0(i64 4, ptr %6) #9
  %11 = load ptr, ptr %3, align 8, !tbaa !4
  %12 = getelementptr inbounds nuw %struct.H264Context, ptr %11, i32 0, i32 9
  %13 = getelementptr inbounds nuw %struct.H264Picture, ptr %12, i32 0, i32 8
  %14 = load ptr, ptr %13, align 8, !tbaa !21
  %15 = load i32, ptr %5, align 4, !tbaa !20
  %16 = sext i32 %15 to i64
  %17 = getelementptr inbounds i32, ptr %14, i64 %16
  %18 = load i32, ptr %17, align 4, !tbaa !20
  store i32 %18, ptr %6, align 4, !tbaa !20
  call void @llvm.lifetime.start.p0(i64 4, ptr %7) #9
  %19 = load ptr, ptr %4, align 8, !tbaa !9
  %20 = getelementptr inbounds nuw %struct.H264SliceContext, ptr %19, i32 0, i32 47
  %21 = load i32, ptr %20, align 8, !tbaa !74
  %22 = icmp ne i32 %21, 0
  br i1 %22, label %32, label %23

23:                                               ; preds = %2
  %24 = load i32, ptr %6, align 4, !tbaa !20
  %25 = and i32 %24, 4
  %26 = icmp ne i32 %25, 0
  br i1 %26, label %32, label %27

27:                                               ; preds = %23
  %28 = load ptr, ptr %4, align 8, !tbaa !9
  %29 = getelementptr inbounds nuw %struct.H264SliceContext, ptr %28, i32 0, i32 7
  %30 = load i32, ptr %29, align 16, !tbaa !75
  %31 = icmp eq i32 %30, 0
  br label %32

32:                                               ; preds = %27, %23, %2
  %33 = phi i1 [ true, %23 ], [ true, %2 ], [ %31, %27 ]
  %34 = zext i1 %33 to i32
  store i32 %34, ptr %7, align 4, !tbaa !20
  %35 = load ptr, ptr %3, align 8, !tbaa !4
  %36 = getelementptr inbounds nuw %struct.H264Context, ptr %35, i32 0, i32 73
  %37 = getelementptr inbounds nuw %struct.H264ParamSets, ptr %36, i32 0, i32 3
  %38 = load ptr, ptr %37, align 8, !tbaa !76
  %39 = getelementptr inbounds nuw %struct.SPS, ptr %38, i32 0, i32 3
  %40 = load i32, ptr %39, align 4, !tbaa !77
  %41 = icmp eq i32 %40, 3
  br i1 %41, label %42, label %57

42:                                               ; preds = %32
  %43 = load i32, ptr %7, align 4, !tbaa !20
  %44 = icmp ne i32 %43, 0
  br i1 %44, label %50, label %45

45:                                               ; preds = %42
  %46 = load ptr, ptr %3, align 8, !tbaa !4
  %47 = getelementptr inbounds nuw %struct.H264Context, ptr %46, i32 0, i32 15
  %48 = load i32, ptr %47, align 8, !tbaa !81
  %49 = icmp ne i32 %48, 0
  br i1 %49, label %50, label %53

50:                                               ; preds = %45, %42
  %51 = load ptr, ptr %3, align 8, !tbaa !4
  %52 = load ptr, ptr %4, align 8, !tbaa !9
  call void @hl_decode_mb_444_complex(ptr noundef %51, ptr noundef %52)
  br label %56

53:                                               ; preds = %45
  %54 = load ptr, ptr %3, align 8, !tbaa !4
  %55 = load ptr, ptr %4, align 8, !tbaa !9
  call void @hl_decode_mb_444_simple_8(ptr noundef %54, ptr noundef %55)
  br label %56

56:                                               ; preds = %53, %50
  br label %76

57:                                               ; preds = %32
  %58 = load i32, ptr %7, align 4, !tbaa !20
  %59 = icmp ne i32 %58, 0
  br i1 %59, label %60, label %63

60:                                               ; preds = %57
  %61 = load ptr, ptr %3, align 8, !tbaa !4
  %62 = load ptr, ptr %4, align 8, !tbaa !9
  call void @hl_decode_mb_complex(ptr noundef %61, ptr noundef %62)
  br label %75

63:                                               ; preds = %57
  %64 = load ptr, ptr %3, align 8, !tbaa !4
  %65 = getelementptr inbounds nuw %struct.H264Context, ptr %64, i32 0, i32 15
  %66 = load i32, ptr %65, align 8, !tbaa !81
  %67 = icmp ne i32 %66, 0
  br i1 %67, label %68, label %71

68:                                               ; preds = %63
  %69 = load ptr, ptr %3, align 8, !tbaa !4
  %70 = load ptr, ptr %4, align 8, !tbaa !9
  call void @hl_decode_mb_simple_16(ptr noundef %69, ptr noundef %70)
  br label %74

71:                                               ; preds = %63
  %72 = load ptr, ptr %3, align 8, !tbaa !4
  %73 = load ptr, ptr %4, align 8, !tbaa !9
  call void @hl_decode_mb_simple_8(ptr noundef %72, ptr noundef %73)
  br label %74

74:                                               ; preds = %71, %68
  br label %75

75:                                               ; preds = %74, %60
  br label %76

76:                                               ; preds = %75, %56
  call void @llvm.lifetime.end.p0(i64 4, ptr %7) #9
  call void @llvm.lifetime.end.p0(i64 4, ptr %6) #9
  call void @llvm.lifetime.end.p0(i64 4, ptr %5) #9
  ret void
}