; Function Attrs: nounwind uwtable
define void @ff_h264_hl_decode_mb(ptr noundef %0, ptr noundef %1) local_unnamed_addr #0 {
  %3 = getelementptr inbounds nuw i8, ptr %1, i64 21064
  %4 = load i32, ptr %3, align 8, !tbaa !4
  %.not = icmp eq i32 %4, 0
  br i1 %.not, label %5, label %18

5:                                                ; preds = %2
  %6 = getelementptr inbounds nuw i8, ptr %0, i64 729312
  %7 = load ptr, ptr %6, align 8, !tbaa !17
  %8 = getelementptr inbounds nuw i8, ptr %1, i64 21040
  %9 = load i32, ptr %8, align 16, !tbaa !71
  %10 = sext i32 %9 to i64
  %11 = getelementptr inbounds i32, ptr %7, i64 %10
  %12 = load i32, ptr %11, align 4, !tbaa !72
  %13 = and i32 %12, 4
  %.not20 = icmp eq i32 %13, 0
  br i1 %.not20, label %14, label %18

14:                                               ; preds = %5
  %15 = getelementptr inbounds nuw i8, ptr %1, i64 64
  %16 = load i32, ptr %15, align 16, !tbaa !73
  %17 = icmp eq i32 %16, 0
  br label %18

18:                                               ; preds = %14, %5, %2
  %19 = phi i1 [ true, %5 ], [ true, %2 ], [ %17, %14 ]
  %20 = getelementptr inbounds nuw i8, ptr %0, i64 734784
  %21 = load ptr, ptr %20, align 8, !tbaa !74
  %22 = getelementptr inbounds nuw i8, ptr %21, i64 12
  %23 = load i32, ptr %22, align 4, !tbaa !75
  %24 = icmp eq i32 %23, 3
  br i1 %24, label %25, label %31

25:                                               ; preds = %18
  br i1 %19, label %29, label %26

26:                                               ; preds = %25
  %27 = getelementptr inbounds nuw i8, ptr %0, i64 730792
  %28 = load i32, ptr %27, align 8, !tbaa !79
  %.not22 = icmp eq i32 %28, 0
  br i1 %.not22, label %30, label %29

29:                                               ; preds = %26, %25
  tail call fastcc void @hl_decode_mb_444_complex(ptr noundef nonnull %0, ptr noundef nonnull %1)
  br label %38

30:                                               ; preds = %26
  tail call fastcc void @hl_decode_mb_444_simple_8(ptr noundef nonnull %0, ptr noundef nonnull %1)
  br label %38

31:                                               ; preds = %18
  br i1 %19, label %32, label %33

32:                                               ; preds = %31
  tail call fastcc void @hl_decode_mb_complex(ptr noundef nonnull %0, ptr noundef nonnull %1)
  br label %38

33:                                               ; preds = %31
  %34 = getelementptr inbounds nuw i8, ptr %0, i64 730792
  %35 = load i32, ptr %34, align 8, !tbaa !79
  %.not21 = icmp eq i32 %35, 0
  br i1 %.not21, label %37, label %36

36:                                               ; preds = %33
  tail call fastcc void @hl_decode_mb_simple_16(ptr noundef nonnull %0, ptr noundef nonnull %1)
  br label %38

37:                                               ; preds = %33
  tail call fastcc void @hl_decode_mb_simple_8(ptr noundef nonnull %0, ptr noundef nonnull %1)
  br label %38

38:                                               ; preds = %32, %37, %36, %29, %30
  ret void
}